; Function Attrs: mustprogress uwtable
define noundef zeroext i1 @_ZN3vcg3tri2io10BreElement4ReadER5QFile(ptr noundef nonnull align 8 dereferenceable(8) %0, ptr noundef nonnull align 8 dereferenceable(16) %1) local_unnamed_addr #9 align 2 personality ptr @__gxx_personality_v0 {
  %3 = load ptr, ptr %0, align 8
  %4 = getelementptr inbounds i8, ptr %3, i64 4
  %5 = load i32, ptr %4, align 4
  %.not = icmp eq i32 %5, 20
  br i1 %.not, label %8, label %6

6:                                                ; preds = %2
  %7 = tail call noundef nonnull align 8 dereferenceable(8) ptr @_ZN10QByteArray4fillEci(ptr noundef nonnull align 8 dereferenceable(8) %0, i8 noundef signext 0, i32 noundef 20)
  %.pre = load ptr, ptr %0, align 8
  br label %8

8:                                                ; preds = %6, %2
  %9 = phi ptr [ %.pre, %6 ], [ %3, %2 ]
  %10 = load atomic i32, ptr %9 monotonic, align 4
  %11 = icmp ugt i32 %10, 1
  br i1 %11, label %15, label %12

12:                                               ; preds = %8
  %13 = getelementptr inbounds i8, ptr %9, i64 16
  %14 = load i64, ptr %13, align 8
  %.not.i.i = icmp eq i64 %14, 24
  br i1 %.not.i.i, label %_ZN10QByteArray4dataEv.exit, label %15

15:                                               ; preds = %12, %8
  %16 = getelementptr inbounds i8, ptr %9, i64 4
  %17 = load i32, ptr %16, align 4
  %18 = add i32 %17, 1
  %19 = getelementptr inbounds i8, ptr %9, i64 8
  %20 = load i32, ptr %19, align 8
  %.lobit.i.i.i = lshr i32 %20, 31
  tail call void @_ZN10QByteArray11reallocDataEj6QFlagsIN10QArrayData16AllocationOptionEE(ptr noundef nonnull align 8 dereferenceable(8) %0, i32 noundef %18, i32 %.lobit.i.i.i)
  %.pre.i = load ptr, ptr %0, align 8
  %.phi.trans.insert.i = getelementptr inbounds i8, ptr %.pre.i, i64 16
  %.pre1.i = load i64, ptr %.phi.trans.insert.i, align 8
  br label %_ZN10QByteArray4dataEv.exit

_ZN10QByteArray4dataEv.exit:                      ; preds = %12, %15
  %21 = phi i64 [ 24, %12 ], [ %.pre1.i, %15 ]
  %22 = phi ptr [ %9, %12 ], [ %.pre.i, %15 ]
  %23 = getelementptr inbounds i8, ptr %22, i64 %21
  %24 = tail call noundef i64 @_ZN9QIODevice4readEPcx(ptr noundef nonnull align 8 dereferenceable(16) %1, ptr noundef %23, i64 noundef 20)
  %.not3 = icmp eq i64 %24, 20
  br i1 %.not3, label %27, label %25

25:                                               ; preds = %_ZN10QByteArray4dataEv.exit
  %26 = tail call noundef nonnull align 8 dereferenceable(8) ptr @_ZN10QByteArray4fillEci(ptr noundef nonnull align 8 dereferenceable(8) %0, i8 noundef signext 0, i32 noundef 20)
  br label %27

27:                                               ; preds = %_ZN10QByteArray4dataEv.exit, %25
  ret i1 %.not3
}